; Function Attrs: nofree norecurse nosync nounwind memory(argmem: read) uwtable
define i32 @Gia_ManFindCond(ptr noundef readonly captures(none) %0, i32 noundef %1, i32 noundef %2, i32 noundef %3) local_unnamed_addr #13 {
  %5 = icmp sgt i32 %1, 0
  br i1 %5, label %.lr.ph, label %.loopexit

.lr.ph:                                           ; preds = %4
  %6 = xor i32 %3, %2
  br label %7

7:                                                ; preds = %.lr.ph, %17
  %.012 = phi i32 [ 0, %.lr.ph ], [ %18, %17 ]
  %8 = shl nuw i32 1, %.012
  %9 = and i32 %8, %6
  %.not = icmp eq i32 %9, 0
  br i1 %.not, label %17, label %10

10:                                               ; preds = %7
  %11 = zext nneg i32 %.012 to i64
  %12 = getelementptr inbounds nuw i32, ptr %0, i64 %11
  %13 = load i32, ptr %12, align 4, !tbaa !11
  %14 = lshr i32 %2, %.012
  %15 = and i32 %14, 1
  %16 = xor i32 %13, %15
  br label %.loopexit

17:                                               ; preds = %7
  %18 = add nuw nsw i32 %.012, 1
  %exitcond.not = icmp eq i32 %18, %1
  br i1 %exitcond.not, label %.loopexit, label %7, !llvm.loop !82

.loopexit:                                        ; preds = %17, %4, %10
  %.010 = phi i32 [ %16, %10 ], [ -1, %4 ], [ -1, %17 ]
  ret i32 %.010
}